target datalayout = "e-m:e-p270:32:32-p271:32:32-p272:64:64-i64:64-i128:128-f80:128-n8:16:32:64-S128"
target triple = "x86_64-pc-linux-gnu"

%struct.AVTXContext = type { i32, i32, ptr, ptr, ptr, ptr, [4 x ptr], i32, [4 x ptr], ptr, i32, i64, i32, float, double, ptr }

; Function Attrs: nounwind uwtable
define internal void @ff_tx_mdct_naive_inv_double_c(ptr noundef %0, ptr noundef %1, ptr noundef %2, i64 noundef %3) #4 {
  %5 = alloca ptr, align 8
  %6 = alloca ptr, align 8
  %7 = alloca ptr, align 8
  %8 = alloca i64, align 8
  %9 = alloca ptr, align 8
  %10 = alloca ptr, align 8
  %11 = alloca double, align 8
  %12 = alloca i32, align 4
  %13 = alloca i32, align 4
  %14 = alloca double, align 8
  %15 = alloca i32, align 4
  %16 = alloca i32, align 4
  %17 = alloca double, align 8
  %18 = alloca double, align 8
  %19 = alloca double, align 8
  %20 = alloca double, align 8
  %21 = alloca i32, align 4
  %22 = alloca double, align 8
  %23 = alloca double, align 8
  %24 = alloca double, align 8
  %25 = alloca double, align 8
  store ptr %0, ptr %5, align 8, !tbaa !17
  store ptr %1, ptr %6, align 8, !tbaa !8
  store ptr %2, ptr %7, align 8, !tbaa !8
  store i64 %3, ptr %8, align 8, !tbaa !30
  call void @llvm.lifetime.start.p0(i64 8, ptr %9) #10
  %26 = load ptr, ptr %7, align 8, !tbaa !8
  store ptr %26, ptr %9, align 8, !tbaa !38
  call void @llvm.lifetime.start.p0(i64 8, ptr %10) #10
  %27 = load ptr, ptr %6, align 8, !tbaa !8
  store ptr %27, ptr %10, align 8, !tbaa !38
  call void @llvm.lifetime.start.p0(i64 8, ptr %11) #10
  %28 = load ptr, ptr %5, align 8, !tbaa !17
  %29 = getelementptr inbounds nuw %struct.AVTXContext, ptr %28, i32 0, i32 14
  %30 = load double, ptr %29, align 8, !tbaa !28
  store double %30, ptr %11, align 8, !tbaa !29
  call void @llvm.lifetime.start.p0(i64 4, ptr %12) #10
  %31 = load ptr, ptr %5, align 8, !tbaa !17
  %32 = getelementptr inbounds nuw %struct.AVTXContext, ptr %31, i32 0, i32 0
  %33 = load i32, ptr %32, align 8, !tbaa !21
  %34 = ashr i32 %33, 1
  store i32 %34, ptr %12, align 4, !tbaa !4
  call void @llvm.lifetime.start.p0(i64 4, ptr %13) #10
  %35 = load i32, ptr %12, align 4, !tbaa !4
  %36 = mul nsw i32 %35, 2
  store i32 %36, ptr %13, align 4, !tbaa !4
  call void @llvm.lifetime.start.p0(i64 8, ptr %14) #10
  %37 = load i32, ptr %13, align 4, !tbaa !4
  %38 = sitofp i32 %37 to double
  %39 = fmul nsz double 4.000000e+00, %38
  %40 = fdiv nsz double 0x400921FB54442D18, %39
  store double %40, ptr %14, align 8, !tbaa !29
  %41 = load i64, ptr %8, align 8, !tbaa !30
  %42 = udiv i64 %41, 8
  store i64 %42, ptr %8, align 8, !tbaa !30
  call void @llvm.lifetime.start.p0(i64 4, ptr %15) #10
  store i32 0, ptr %15, align 4, !tbaa !4
  br label %43

43:                                               ; preds = %122, %4
  %44 = load i32, ptr %15, align 4, !tbaa !4
  %45 = load i32, ptr %12, align 4, !tbaa !4
  %46 = icmp slt i32 %44, %45
  br i1 %46, label %48, label %47

47:                                               ; preds = %43
  store i32 2, ptr %16, align 4
  call void @llvm.lifetime.end.p0(i64 4, ptr %15) #10
  br label %125

48:                                               ; preds = %43
  call void @llvm.lifetime.start.p0(i64 8, ptr %17) #10
  store double 0.000000e+00, ptr %17, align 8, !tbaa !29
  call void @llvm.lifetime.start.p0(i64 8, ptr %18) #10
  store double 0.000000e+00, ptr %18, align 8, !tbaa !29
  call void @llvm.lifetime.start.p0(i64 8, ptr %19) #10
  %49 = load double, ptr %14, align 8, !tbaa !29
  %50 = load i32, ptr %12, align 4, !tbaa !4
  %51 = mul nsw i32 4, %50
  %52 = load i32, ptr %15, align 4, !tbaa !4
  %53 = mul nsw i32 2, %52
  %54 = sub nsw i32 %51, %53
  %55 = sub nsw i32 %54, 1
  %56 = sitofp i32 %55 to double
  %57 = fmul nsz double %49, %56
  store double %57, ptr %19, align 8, !tbaa !29
  call void @llvm.lifetime.start.p0(i64 8, ptr %20) #10
  %58 = load double, ptr %14, align 8, !tbaa !29
  %59 = load i32, ptr %13, align 4, !tbaa !4
  %60 = mul nsw i32 3, %59
  %61 = load i32, ptr %15, align 4, !tbaa !4
  %62 = mul nsw i32 2, %61
  %63 = add nsw i32 %60, %62
  %64 = add nsw i32 %63, 1
  %65 = sitofp i32 %64 to double
  %66 = fmul nsz double %58, %65
  store double %66, ptr %20, align 8, !tbaa !29
  call void @llvm.lifetime.start.p0(i64 4, ptr %21) #10
  store i32 0, ptr %21, align 4, !tbaa !4
  br label %67

67:                                               ; preds = %100, %48
  %68 = load i32, ptr %21, align 4, !tbaa !4
  %69 = load i32, ptr %13, align 4, !tbaa !4
  %70 = icmp slt i32 %68, %69
  br i1 %70, label %72, label %71

71:                                               ; preds = %67
  store i32 5, ptr %16, align 4
  call void @llvm.lifetime.end.p0(i64 4, ptr %21) #10
  br label %103

72:                                               ; preds = %67
  call void @llvm.lifetime.start.p0(i64 8, ptr %22) #10
  %73 = load i32, ptr %21, align 4, !tbaa !4
  %74 = mul nsw i32 2, %73
  %75 = add nsw i32 %74, 1
  %76 = sitofp i32 %75 to double
  store double %76, ptr %22, align 8, !tbaa !29
  call void @llvm.lifetime.start.p0(i64 8, ptr %23) #10
  %77 = load double, ptr %22, align 8, !tbaa !29
  %78 = load double, ptr %19, align 8, !tbaa !29
  %79 = fmul nsz double %77, %78
  %80 = call nsz double @llvm.cos.f64(double %79)
  store double %80, ptr %23, align 8, !tbaa !29
  call void @llvm.lifetime.start.p0(i64 8, ptr %24) #10
  %81 = load double, ptr %22, align 8, !tbaa !29
  %82 = load double, ptr %20, align 8, !tbaa !29
  %83 = fmul nsz double %81, %82
  %84 = call nsz double @llvm.cos.f64(double %83)
  store double %84, ptr %24, align 8, !tbaa !29
  call void @llvm.lifetime.start.p0(i64 8, ptr %25) #10
  %85 = load ptr, ptr %9, align 8, !tbaa !38
  %86 = load i32, ptr %21, align 4, !tbaa !4
  %87 = sext i32 %86 to i64
  %88 = load i64, ptr %8, align 8, !tbaa !30
  %89 = mul nsw i64 %87, %88
  %90 = getelementptr inbounds double, ptr %85, i64 %89
  %91 = load double, ptr %90, align 8, !tbaa !29
  store double %91, ptr %25, align 8, !tbaa !29
  %92 = load double, ptr %23, align 8, !tbaa !29
  %93 = load double, ptr %25, align 8, !tbaa !29
  %94 = load double, ptr %17, align 8, !tbaa !29
  %95 = call nsz double @llvm.fmuladd.f64(double %92, double %93, double %94)
  store double %95, ptr %17, align 8, !tbaa !29
  %96 = load double, ptr %24, align 8, !tbaa !29
  %97 = load double, ptr %25, align 8, !tbaa !29
  %98 = load double, ptr %18, align 8, !tbaa !29
  %99 = call nsz double @llvm.fmuladd.f64(double %96, double %97, double %98)
  store double %99, ptr %18, align 8, !tbaa !29
  call void @llvm.lifetime.end.p0(i64 8, ptr %25) #10
  call void @llvm.lifetime.end.p0(i64 8, ptr %24) #10
  call void @llvm.lifetime.end.p0(i64 8, ptr %23) #10
  call void @llvm.lifetime.end.p0(i64 8, ptr %22) #10
  br label %100

100:                                              ; preds = %72
  %101 = load i32, ptr %21, align 4, !tbaa !4
  %102 = add nsw i32 %101, 1
  store i32 %102, ptr %21, align 4, !tbaa !4
  br label %67, !llvm.loop !144

103:                                              ; preds = %71
  %104 = load double, ptr %17, align 8, !tbaa !29
  %105 = load double, ptr %11, align 8, !tbaa !29
  %106 = fmul nsz double %104, %105
  %107 = load ptr, ptr %10, align 8, !tbaa !38
  %108 = load i32, ptr %15, align 4, !tbaa !4
  %109 = add nsw i32 %108, 0
  %110 = sext i32 %109 to i64
  %111 = getelementptr inbounds double, ptr %107, i64 %110
  store double %106, ptr %111, align 8, !tbaa !29
  %112 = load double, ptr %18, align 8, !tbaa !29
  %113 = fneg nsz double %112
  %114 = load double, ptr %11, align 8, !tbaa !29
  %115 = fmul nsz double %113, %114
  %116 = load ptr, ptr %10, align 8, !tbaa !38
  %117 = load i32, ptr %15, align 4, !tbaa !4
  %118 = load i32, ptr %12, align 4, !tbaa !4
  %119 = add nsw i32 %117, %118
  %120 = sext i32 %119 to i64
  %121 = getelementptr inbounds double, ptr %116, i64 %120
  store double %115, ptr %121, align 8, !tbaa !29
  call void @llvm.lifetime.end.p0(i64 8, ptr %20) #10
  call void @llvm.lifetime.end.p0(i64 8, ptr %19) #10
  call void @llvm.lifetime.end.p0(i64 8, ptr %18) #10
  call void @llvm.lifetime.end.p0(i64 8, ptr %17) #10
  br label %122

122:                                              ; preds = %103
  %123 = load i32, ptr %15, align 4, !tbaa !4
  %124 = add nsw i32 %123, 1
  store i32 %124, ptr %15, align 4, !tbaa !4
  br label %43, !llvm.loop !145

125:                                              ; preds = %47
  call void @llvm.lifetime.end.p0(i64 8, ptr %14) #10
  call void @llvm.lifetime.end.p0(i64 4, ptr %13) #10
  call void @llvm.lifetime.end.p0(i64 4, ptr %12) #10
  call void @llvm.lifetime.end.p0(i64 8, ptr %11) #10
  call void @llvm.lifetime.end.p0(i64 8, ptr %10) #10
  call void @llvm.lifetime.end.p0(i64 8, ptr %9) #10
  ret void
}