; Function Attrs: nofree norecurse nosync nounwind memory(argmem: readwrite) uwtable
define internal void @ff_tx_mdct_naive_inv_double_c(ptr noundef readonly captures(none) %0, ptr noundef writeonly captures(none) %1, ptr noundef readonly captures(none) %2, i64 noundef %3) #13 {
  %5 = getelementptr inbounds nuw i8, ptr %0, i64 144
  %6 = load double, ptr %5, align 8, !tbaa !25
  %7 = load i32, ptr %0, align 8, !tbaa !16
  %8 = ashr i32 %7, 1
  %9 = and i32 %7, -2
  %10 = sitofp i32 %9 to double
  %11 = fmul nsz double %10, 4.000000e+00
  %12 = fdiv nsz double 0x400921FB54442D18, %11
  %13 = lshr i64 %3, 3
  %14 = icmp sgt i32 %8, 0
  br i1 %14, label %.lr.ph.us.preheader, label %._crit_edge52

.lr.ph.us.preheader:                              ; preds = %4
  %15 = shl nuw nsw i32 %8, 2
  %16 = mul nsw i32 %9, 3
  %invariant.op = or disjoint i32 %16, 1
  %17 = zext nneg i32 %8 to i64
  %wide.trip.count59 = zext nneg i32 %9 to i64
  %invariant.gep = getelementptr inbounds nuw double, ptr %1, i64 %17
  br label %.lr.ph.us

.lr.ph.us:                                        ; preds = %.lr.ph.us.preheader, %._crit_edge.us
  %indvars.iv61 = phi i64 [ 0, %.lr.ph.us.preheader ], [ %indvars.iv.next62, %._crit_edge.us ]
  %18 = shl nuw nsw i64 %indvars.iv61, 1
  %19 = trunc nuw nsw i64 %18 to i32
  %20 = xor i32 %19, -1
  %21 = add nsw i32 %15, %20
  %22 = sitofp i32 %21 to double
  %23 = fmul nsz double %12, %22
  %24 = trunc i64 %18 to i32
  %25 = add i32 %invariant.op, %24
  %26 = sitofp i32 %25 to double
  %27 = fmul nsz double %12, %26
  br label %28

28:                                               ; preds = %.lr.ph.us, %28
  %indvars.iv56 = phi i64 [ 0, %.lr.ph.us ], [ %indvars.iv.next57, %28 ]
  %.04147.us = phi double [ 0.000000e+00, %.lr.ph.us ], [ %39, %28 ]
  %.04345.us = phi double [ 0.000000e+00, %.lr.ph.us ], [ %40, %28 ]
  %indvars.iv56.tr = trunc i64 %indvars.iv56 to i32
  %29 = shl i32 %indvars.iv56.tr, 1
  %30 = or disjoint i32 %29, 1
  %31 = uitofp nneg i32 %30 to double
  %32 = fmul nsz double %23, %31
  %33 = tail call nsz double @llvm.cos.f64(double %32)
  %34 = fmul nsz double %27, %31
  %35 = tail call nsz double @llvm.cos.f64(double %34)
  %36 = mul nuw nsw i64 %13, %indvars.iv56
  %37 = getelementptr inbounds nuw double, ptr %2, i64 %36
  %38 = load double, ptr %37, align 8, !tbaa !27
  %39 = tail call nsz double @llvm.fmuladd.f64(double %33, double %38, double %.04147.us)
  %40 = tail call nsz double @llvm.fmuladd.f64(double %35, double %38, double %.04345.us)
  %indvars.iv.next57 = add nuw nsw i64 %indvars.iv56, 1
  %exitcond60.not = icmp eq i64 %indvars.iv.next57, %wide.trip.count59
  br i1 %exitcond60.not, label %._crit_edge.us, label %28, !llvm.loop !135

._crit_edge.us:                                   ; preds = %28
  %41 = fmul nsz double %6, %39
  %42 = getelementptr inbounds nuw double, ptr %1, i64 %indvars.iv61
  store double %41, ptr %42, align 8, !tbaa !27
  %43 = fneg nsz double %40
  %44 = fmul nsz double %6, %43
  %gep = getelementptr inbounds nuw double, ptr %invariant.gep, i64 %indvars.iv61
  store double %44, ptr %gep, align 8, !tbaa !27
  %indvars.iv.next62 = add nuw nsw i64 %indvars.iv61, 1
  %exitcond66.not = icmp eq i64 %indvars.iv.next62, %17
  br i1 %exitcond66.not, label %._crit_edge52, label %.lr.ph.us, !llvm.loop !136

._crit_edge52:                                    ; preds = %._crit_edge.us, %4
  ret void
}